target datalayout = "e-m:e-p270:32:32-p271:32:32-p272:64:64-i64:64-i128:128-f80:128-n8:16:32:64-S128"
target triple = "x86_64-pc-linux-gnu"

%struct.ParseState = type { ptr, ptr, i32, i32, ptr, ptr, ptr, ptr, ptr, ptr, i8, ptr, ptr, ptr, ptr, ptr, ptr, i8, ptr, i32, i32, ptr, ptr, i8, i8, ptr, i8, i8, i8, i8, i8, ptr, ptr, ptr, ptr, ptr, ptr }
%struct.ForEachState = type { ptr, i32 }
%struct.List = type { i32, i32, i32, ptr, [0 x %union.ListCell] }
%union.ListCell = type { ptr }
%struct.ParseNamespaceItem = type { ptr, ptr, i32, ptr, ptr, i8, i8, i8, i8, i32 }
%struct.RangeTblEntry = type { i32, ptr, ptr, i32, i32, i8, i8, i32, i32, ptr, ptr, i8, i32, i32, ptr, ptr, ptr, ptr, ptr, i8, ptr, ptr, ptr, i32, i8, ptr, ptr, ptr, ptr, double, ptr, i8, i8, ptr }
%struct.Alias = type { i32, ptr, ptr }
%struct.Expr = type { i32 }
%struct.Node = type { i32 }
%struct.Query = type { i32, i32, i32, i64, i8, ptr, i32, i8, i8, i8, i8, i8, i8, i8, i8, i8, i8, i8, ptr, ptr, ptr, ptr, ptr, i32, ptr, ptr, i32, ptr, ptr, ptr, ptr, ptr, i8, ptr, ptr, ptr, ptr, ptr, ptr, ptr, i32, ptr, ptr, ptr, ptr, i32, i32 }
%struct.TargetEntry = type { %struct.Expr, ptr, i16, ptr, i32, i32, i16, i8 }

@.str.1 = private unnamed_addr constant [17 x i8] c"parse_relation.c\00", align 1
@.str.14 = private unnamed_addr constant [17 x i8] c"unnamed_subquery\00", align 1
@.str.15 = private unnamed_addr constant [61 x i8] c"table \22%s\22 has %d columns available but %d columns specified\00", align 1
@__func__.addRangeTableEntryForSubquery = private unnamed_addr constant [30 x i8] c"addRangeTableEntryForSubquery\00", align 1

; Function Attrs: inlinehint nounwind uwtable
define internal i32 @list_length(ptr noundef %0) #6 {
  %2 = alloca ptr, align 8
  store ptr %0, ptr %2, align 8
  %3 = load ptr, ptr %2, align 8
  %4 = icmp ne ptr %3, null
  br i1 %4, label %5, label %9

5:                                                ; preds = %1
  %6 = load ptr, ptr %2, align 8
  %7 = getelementptr inbounds nuw %struct.List, ptr %6, i32 0, i32 1
  %8 = load i32, ptr %7, align 4
  br label %10

9:                                                ; preds = %1
  br label %10

10:                                               ; preds = %9, %5
  %11 = phi i32 [ %8, %5 ], [ 0, %9 ]
  ret i32 %11
}

; Function Attrs: inlinehint nounwind uwtable
define internal ptr @newNode(i64 noundef %0, i32 noundef %1) #6 {
  %3 = alloca i64, align 8
  %4 = alloca i32, align 4
  %5 = alloca ptr, align 8
  store i64 %0, ptr %3, align 8
  store i32 %1, ptr %4, align 4
  call void @llvm.lifetime.start.p0(i64 8, ptr %5) #8
  %6 = load i64, ptr %3, align 8
  %7 = call ptr @palloc0(i64 noundef %6)
  store ptr %7, ptr %5, align 8
  %8 = load i32, ptr %4, align 4
  %9 = load ptr, ptr %5, align 8
  %10 = getelementptr inbounds nuw %struct.Node, ptr %9, i32 0, i32 0
  store i32 %8, ptr %10, align 4
  %11 = load ptr, ptr %5, align 8
  call void @llvm.lifetime.end.p0(i64 8, ptr %5) #8
  ret ptr %11
}

; Function Attrs: nounwind uwtable
define dso_local ptr @addRangeTableEntryForSubquery(ptr noundef %0, ptr noundef %1, ptr noundef %2, i1 noundef zeroext %3, i1 noundef zeroext %4) #0 {
  %6 = alloca ptr, align 8
  %7 = alloca ptr, align 8
  %8 = alloca ptr, align 8
  %9 = alloca i8, align 1
  %10 = alloca i8, align 1
  %11 = alloca ptr, align 8
  %12 = alloca ptr, align 8
  %13 = alloca i32, align 4
  %14 = alloca ptr, align 8
  %15 = alloca ptr, align 8
  %16 = alloca ptr, align 8
  %17 = alloca i32, align 4
  %18 = alloca ptr, align 8
  %19 = alloca ptr, align 8
  %20 = alloca %struct.ForEachState, align 8
  %21 = alloca i32, align 4
  %22 = alloca ptr, align 8
  %23 = alloca ptr, align 8
  store ptr %0, ptr %6, align 8
  store ptr %1, ptr %7, align 8
  store ptr %2, ptr %8, align 8
  %24 = zext i1 %3 to i8
  store i8 %24, ptr %9, align 1
  %25 = zext i1 %4 to i8
  store i8 %25, ptr %10, align 1
  call void @llvm.lifetime.start.p0(i64 8, ptr %11) #8
  %26 = call ptr @newNode(i64 noundef 224, i32 noundef 101)
  store ptr %26, ptr %11, align 8
  call void @llvm.lifetime.start.p0(i64 8, ptr %12) #8
  call void @llvm.lifetime.start.p0(i64 4, ptr %13) #8
  call void @llvm.lifetime.start.p0(i64 8, ptr %14) #8
  call void @llvm.lifetime.start.p0(i64 8, ptr %15) #8
  call void @llvm.lifetime.start.p0(i64 8, ptr %16) #8
  call void @llvm.lifetime.start.p0(i64 4, ptr %17) #8
  call void @llvm.lifetime.start.p0(i64 8, ptr %18) #8
  call void @llvm.lifetime.start.p0(i64 8, ptr %19) #8
  %27 = load ptr, ptr %11, align 8
  %28 = getelementptr inbounds nuw %struct.RangeTblEntry, ptr %27, i32 0, i32 3
  store i32 1, ptr %28, align 8
  %29 = load ptr, ptr %7, align 8
  %30 = load ptr, ptr %11, align 8
  %31 = getelementptr inbounds nuw %struct.RangeTblEntry, ptr %30, i32 0, i32 10
  store ptr %29, ptr %31, align 8
  %32 = load ptr, ptr %8, align 8
  %33 = load ptr, ptr %11, align 8
  %34 = getelementptr inbounds nuw %struct.RangeTblEntry, ptr %33, i32 0, i32 1
  store ptr %32, ptr %34, align 8
  %35 = load ptr, ptr %8, align 8
  %36 = icmp ne ptr %35, null
  br i1 %36, label %37, label %40

37:                                               ; preds = %5
  %38 = load ptr, ptr %8, align 8
  %39 = call ptr @copyObjectImpl(ptr noundef %38)
  br label %42

40:                                               ; preds = %5
  %41 = call ptr @makeAlias(ptr noundef @.str.14, ptr noundef null)
  br label %42

42:                                               ; preds = %40, %37
  %43 = phi ptr [ %39, %37 ], [ %41, %40 ]
  store ptr %43, ptr %12, align 8
  %44 = load ptr, ptr %12, align 8
  %45 = getelementptr inbounds nuw %struct.Alias, ptr %44, i32 0, i32 2
  %46 = load ptr, ptr %45, align 8
  %47 = call i32 @list_length(ptr noundef %46)
  store i32 %47, ptr %13, align 4
  store ptr null, ptr %16, align 8
  store ptr null, ptr %15, align 8
  store ptr null, ptr %14, align 8
  store i32 0, ptr %17, align 4
  call void @llvm.lifetime.start.p0(i64 16, ptr %20) #8
  %48 = getelementptr inbounds nuw %struct.ForEachState, ptr %20, i32 0, i32 0
  %49 = load ptr, ptr %7, align 8
  %50 = getelementptr inbounds nuw %struct.Query, ptr %49, i32 0, i32 25
  %51 = load ptr, ptr %50, align 8
  store ptr %51, ptr %48, align 8
  %52 = getelementptr inbounds nuw %struct.ForEachState, ptr %20, i32 0, i32 1
  store i32 0, ptr %52, align 8
  %53 = getelementptr i8, ptr %20, i64 12
  call void @llvm.memset.p0.i64(ptr align 4 %53, i8 0, i64 4, i1 false)
  br label %54

54:                                               ; preds = %129, %42
  %55 = getelementptr inbounds nuw %struct.ForEachState, ptr %20, i32 0, i32 0
  %56 = load ptr, ptr %55, align 8
  %57 = icmp ne ptr %56, null
  br i1 %57, label %58, label %75

58:                                               ; preds = %54
  %59 = getelementptr inbounds nuw %struct.ForEachState, ptr %20, i32 0, i32 1
  %60 = load i32, ptr %59, align 8
  %61 = getelementptr inbounds nuw %struct.ForEachState, ptr %20, i32 0, i32 0
  %62 = load ptr, ptr %61, align 8
  %63 = getelementptr inbounds nuw %struct.List, ptr %62, i32 0, i32 1
  %64 = load i32, ptr %63, align 4
  %65 = icmp slt i32 %60, %64
  br i1 %65, label %66, label %75

66:                                               ; preds = %58
  %67 = getelementptr inbounds nuw %struct.ForEachState, ptr %20, i32 0, i32 0
  %68 = load ptr, ptr %67, align 8
  %69 = getelementptr inbounds nuw %struct.List, ptr %68, i32 0, i32 3
  %70 = load ptr, ptr %69, align 8
  %71 = getelementptr inbounds nuw %struct.ForEachState, ptr %20, i32 0, i32 1
  %72 = load i32, ptr %71, align 8
  %73 = sext i32 %72 to i64
  %74 = getelementptr inbounds %union.ListCell, ptr %70, i64 %73
  store ptr %74, ptr %18, align 8
  br label %76

75:                                               ; preds = %58, %54
  store ptr null, ptr %18, align 8
  br label %76

76:                                               ; preds = %75, %66
  %77 = phi i32 [ 1, %66 ], [ 0, %75 ]
  %78 = icmp ne i32 %77, 0
  br i1 %78, label %80, label %79

79:                                               ; preds = %76
  store i32 2, ptr %21, align 4
  call void @llvm.lifetime.end.p0(i64 16, ptr %20) #8
  br label %133

80:                                               ; preds = %76
  call void @llvm.lifetime.start.p0(i64 8, ptr %22) #8
  %81 = load ptr, ptr %18, align 8
  %82 = load ptr, ptr %81, align 8
  store ptr %82, ptr %22, align 8
  %83 = load ptr, ptr %22, align 8
  %84 = getelementptr inbounds nuw %struct.TargetEntry, ptr %83, i32 0, i32 7
  %85 = load i8, ptr %84, align 2, !range !6, !noundef !7
  %86 = trunc i8 %85 to i1
  br i1 %86, label %87, label %88

87:                                               ; preds = %80
  store i32 4, ptr %21, align 4
  br label %126

88:                                               ; preds = %80
  %89 = load i32, ptr %17, align 4
  %90 = add i32 %89, 1
  store i32 %90, ptr %17, align 4
  %91 = load i32, ptr %17, align 4
  %92 = load i32, ptr %13, align 4
  %93 = icmp sgt i32 %91, %92
  br i1 %93, label %94, label %107

94:                                               ; preds = %88
  call void @llvm.lifetime.start.p0(i64 8, ptr %23) #8
  %95 = load ptr, ptr %22, align 8
  %96 = getelementptr inbounds nuw %struct.TargetEntry, ptr %95, i32 0, i32 3
  %97 = load ptr, ptr %96, align 8
  %98 = call ptr @pstrdup(ptr noundef %97)
  store ptr %98, ptr %23, align 8
  %99 = load ptr, ptr %12, align 8
  %100 = getelementptr inbounds nuw %struct.Alias, ptr %99, i32 0, i32 2
  %101 = load ptr, ptr %100, align 8
  %102 = load ptr, ptr %23, align 8
  %103 = call ptr @makeString(ptr noundef %102)
  %104 = call ptr @lappend(ptr noundef %101, ptr noundef %103)
  %105 = load ptr, ptr %12, align 8
  %106 = getelementptr inbounds nuw %struct.Alias, ptr %105, i32 0, i32 2
  store ptr %104, ptr %106, align 8
  call void @llvm.lifetime.end.p0(i64 8, ptr %23) #8
  br label %107

107:                                              ; preds = %94, %88
  %108 = load ptr, ptr %14, align 8
  %109 = load ptr, ptr %22, align 8
  %110 = getelementptr inbounds nuw %struct.TargetEntry, ptr %109, i32 0, i32 1
  %111 = load ptr, ptr %110, align 8
  %112 = call i32 @exprType(ptr noundef %111)
  %113 = call ptr @lappend_oid(ptr noundef %108, i32 noundef %112)
  store ptr %113, ptr %14, align 8
  %114 = load ptr, ptr %15, align 8
  %115 = load ptr, ptr %22, align 8
  %116 = getelementptr inbounds nuw %struct.TargetEntry, ptr %115, i32 0, i32 1
  %117 = load ptr, ptr %116, align 8
  %118 = call i32 @exprTypmod(ptr noundef %117)
  %119 = call ptr @lappend_int(ptr noundef %114, i32 noundef %118)
  store ptr %119, ptr %15, align 8
  %120 = load ptr, ptr %16, align 8
  %121 = load ptr, ptr %22, align 8
  %122 = getelementptr inbounds nuw %struct.TargetEntry, ptr %121, i32 0, i32 1
  %123 = load ptr, ptr %122, align 8
  %124 = call i32 @exprCollation(ptr noundef %123)
  %125 = call ptr @lappend_oid(ptr noundef %120, i32 noundef %124)
  store ptr %125, ptr %16, align 8
  store i32 0, ptr %21, align 4
  br label %126

126:                                              ; preds = %107, %87
  call void @llvm.lifetime.end.p0(i64 8, ptr %22) #8
  %127 = load i32, ptr %21, align 4
  switch i32 %127, label %190 [
    i32 0, label %128
    i32 4, label %129
  ]

128:                                              ; preds = %126
  br label %129

129:                                              ; preds = %128, %126
  %130 = getelementptr inbounds nuw %struct.ForEachState, ptr %20, i32 0, i32 1
  %131 = load i32, ptr %130, align 8
  %132 = add i32 %131, 1
  store i32 %132, ptr %130, align 8
  br label %54, !llvm.loop !30

133:                                              ; preds = %79
  %134 = load i32, ptr %17, align 4
  %135 = load i32, ptr %13, align 4
  %136 = icmp slt i32 %134, %135
  br i1 %136, label %137, label %154

137:                                              ; preds = %133
  br label %138

138:                                              ; preds = %137
  br i1 true, label %139, label %141

139:                                              ; preds = %138
  %140 = call zeroext i1 @errstart_cold(i32 noundef 21, ptr noundef null) #9
  br i1 %140, label %143, label %151

141:                                              ; preds = %138
  %142 = call zeroext i1 @errstart(i32 noundef 21, ptr noundef null)
  br i1 %142, label %143, label %151

143:                                              ; preds = %141, %139
  %144 = call i32 @errcode(i32 noundef 393348)
  %145 = load ptr, ptr %12, align 8
  %146 = getelementptr inbounds nuw %struct.Alias, ptr %145, i32 0, i32 1
  %147 = load ptr, ptr %146, align 8
  %148 = load i32, ptr %17, align 4
  %149 = load i32, ptr %13, align 4
  %150 = call i32 (ptr, ...) @errmsg(ptr noundef @.str.15, ptr noundef %147, i32 noundef %148, i32 noundef %149)
  call void @errfinish(ptr noundef @.str.1, i32 noundef 1709, ptr noundef @__func__.addRangeTableEntryForSubquery)
  br label %151

151:                                              ; preds = %143, %141, %139
  unreachable

152:                                              ; No predecessors!
  br label %153

153:                                              ; preds = %152
  br label %154

154:                                              ; preds = %153, %133
  %155 = load ptr, ptr %12, align 8
  %156 = load ptr, ptr %11, align 8
  %157 = getelementptr inbounds nuw %struct.RangeTblEntry, ptr %156, i32 0, i32 2
  store ptr %155, ptr %157, align 8
  %158 = load i8, ptr %9, align 1, !range !6, !noundef !7
  %159 = trunc i8 %158 to i1
  %160 = load ptr, ptr %11, align 8
  %161 = getelementptr inbounds nuw %struct.RangeTblEntry, ptr %160, i32 0, i32 31
  %162 = zext i1 %159 to i8
  store i8 %162, ptr %161, align 8
  %163 = load i8, ptr %10, align 1, !range !6, !noundef !7
  %164 = trunc i8 %163 to i1
  %165 = load ptr, ptr %11, align 8
  %166 = getelementptr inbounds nuw %struct.RangeTblEntry, ptr %165, i32 0, i32 32
  %167 = zext i1 %164 to i8
  store i8 %167, ptr %166, align 1
  %168 = load ptr, ptr %6, align 8
  %169 = getelementptr inbounds nuw %struct.ParseState, ptr %168, i32 0, i32 4
  %170 = load ptr, ptr %169, align 8
  %171 = load ptr, ptr %11, align 8
  %172 = call ptr @lappend(ptr noundef %170, ptr noundef %171)
  %173 = load ptr, ptr %6, align 8
  %174 = getelementptr inbounds nuw %struct.ParseState, ptr %173, i32 0, i32 4
  store ptr %172, ptr %174, align 8
  %175 = load ptr, ptr %11, align 8
  %176 = load ptr, ptr %6, align 8
  %177 = getelementptr inbounds nuw %struct.ParseState, ptr %176, i32 0, i32 4
  %178 = load ptr, ptr %177, align 8
  %179 = call i32 @list_length(ptr noundef %178)
  %180 = load ptr, ptr %14, align 8
  %181 = load ptr, ptr %15, align 8
  %182 = load ptr, ptr %16, align 8
  %183 = call ptr @buildNSItemFromLists(ptr noundef %175, i32 noundef %179, ptr noundef %180, ptr noundef %181, ptr noundef %182)
  store ptr %183, ptr %19, align 8
  %184 = load ptr, ptr %8, align 8
  %185 = icmp ne ptr %184, null
  %186 = load ptr, ptr %19, align 8
  %187 = getelementptr inbounds nuw %struct.ParseNamespaceItem, ptr %186, i32 0, i32 5
  %188 = zext i1 %185 to i8
  store i8 %188, ptr %187, align 8
  %189 = load ptr, ptr %19, align 8
  store i32 1, ptr %21, align 4
  call void @llvm.lifetime.end.p0(i64 8, ptr %19) #8
  call void @llvm.lifetime.end.p0(i64 8, ptr %18) #8
  call void @llvm.lifetime.end.p0(i64 4, ptr %17) #8
  call void @llvm.lifetime.end.p0(i64 8, ptr %16) #8
  call void @llvm.lifetime.end.p0(i64 8, ptr %15) #8
  call void @llvm.lifetime.end.p0(i64 8, ptr %14) #8
  call void @llvm.lifetime.end.p0(i64 4, ptr %13) #8
  call void @llvm.lifetime.end.p0(i64 8, ptr %12) #8
  call void @llvm.lifetime.end.p0(i64 8, ptr %11) #8
  ret ptr %189

190:                                              ; preds = %126
  unreachable
}