; Function Attrs: nounwind uwtable
define dso_local noundef ptr @addRangeTableEntryForSubquery(ptr noundef captures(none) %0, ptr noundef %1, ptr noundef %2, i1 noundef zeroext %3, i1 noundef zeroext %4) local_unnamed_addr #0 {
  %6 = tail call noundef ptr @palloc0(i64 noundef 224) #11
  store i32 101, ptr %6, align 4
  %7 = getelementptr inbounds nuw i8, ptr %6, i64 24
  store i32 1, ptr %7, align 8
  %8 = getelementptr inbounds nuw i8, ptr %6, i64 56
  store ptr %1, ptr %8, align 8
  %9 = getelementptr inbounds nuw i8, ptr %6, i64 8
  store ptr %2, ptr %9, align 8
  %10 = icmp ne ptr %2, null
  br i1 %10, label %11, label %13

11:                                               ; preds = %5
  %12 = tail call ptr @copyObjectImpl(ptr noundef nonnull %2) #11
  br label %15

13:                                               ; preds = %5
  %14 = tail call ptr @makeAlias(ptr noundef nonnull @.str.14, ptr noundef null) #11
  br label %15

15:                                               ; preds = %13, %11
  %16 = phi ptr [ %12, %11 ], [ %14, %13 ]
  %17 = getelementptr inbounds nuw i8, ptr %16, i64 16
  %18 = load ptr, ptr %17, align 8
  %.not.i = icmp eq ptr %18, null
  br i1 %.not.i, label %list_length.exit, label %19

19:                                               ; preds = %15
  %20 = getelementptr inbounds nuw i8, ptr %18, i64 4
  %21 = load i32, ptr %20, align 4
  br label %list_length.exit

list_length.exit:                                 ; preds = %15, %19
  %22 = phi i32 [ %21, %19 ], [ 0, %15 ]
  %23 = getelementptr inbounds nuw i8, ptr %1, i64 112
  %24 = load ptr, ptr %23, align 8
  %25 = getelementptr inbounds nuw i8, ptr %24, i64 4
  %.not = icmp eq ptr %24, null
  br i1 %.not, label %._crit_edge, label %.lr.ph

.lr.ph:                                           ; preds = %list_length.exit
  %26 = getelementptr inbounds nuw i8, ptr %24, i64 16
  %27 = load i32, ptr %25, align 4
  %28 = icmp sgt i32 %27, 0
  br i1 %28, label %.lr.ph89, label %._crit_edge

._crit_edge:                                      ; preds = %58, %.lr.ph, %list_length.exit
  %.053.lcssa = phi i32 [ 0, %list_length.exit ], [ 0, %.lr.ph ], [ %.154, %58 ]
  %.051.lcssa = phi ptr [ null, %list_length.exit ], [ null, %.lr.ph ], [ %.152, %58 ]
  %.049.lcssa = phi ptr [ null, %list_length.exit ], [ null, %.lr.ph ], [ %.150, %58 ]
  %.0.lcssa = phi ptr [ null, %list_length.exit ], [ null, %.lr.ph ], [ %.1, %58 ]
  %29 = icmp slt i32 %.053.lcssa, %22
  br i1 %29, label %62, label %68

.lr.ph89:                                         ; preds = %.lr.ph, %58
  %30 = phi i32 [ %59, %58 ], [ %27, %.lr.ph ]
  %indvars.iv = phi i64 [ %indvars.iv.next, %58 ], [ 0, %.lr.ph ]
  %.0536488 = phi i32 [ %.154, %58 ], [ 0, %.lr.ph ]
  %.0516686 = phi ptr [ %.152, %58 ], [ null, %.lr.ph ]
  %.0496785 = phi ptr [ %.150, %58 ], [ null, %.lr.ph ]
  %.06884 = phi ptr [ %.1, %58 ], [ null, %.lr.ph ]
  %31 = load ptr, ptr %26, align 8
  %32 = getelementptr inbounds nuw %union.ListCell, ptr %31, i64 %indvars.iv
  %33 = load ptr, ptr %32, align 8
  %34 = getelementptr inbounds nuw i8, ptr %33, i64 42
  %35 = load i8, ptr %34, align 2, !range !4, !noundef !5
  %36 = trunc nuw i8 %35 to i1
  br i1 %36, label %58, label %37

37:                                               ; preds = %.lr.ph89
  %38 = add i32 %.0536488, 1
  %39 = icmp sgt i32 %38, %22
  br i1 %39, label %40, label %47

40:                                               ; preds = %37
  %41 = getelementptr inbounds nuw i8, ptr %33, i64 24
  %42 = load ptr, ptr %41, align 8
  %43 = tail call ptr @pstrdup(ptr noundef %42) #11
  %44 = load ptr, ptr %17, align 8
  %45 = tail call ptr @makeString(ptr noundef %43) #11
  %46 = tail call ptr @lappend(ptr noundef %44, ptr noundef %45) #11
  store ptr %46, ptr %17, align 8
  br label %47

47:                                               ; preds = %40, %37
  %48 = getelementptr inbounds nuw i8, ptr %33, i64 8
  %49 = load ptr, ptr %48, align 8
  %50 = tail call i32 @exprType(ptr noundef %49) #11
  %51 = tail call ptr @lappend_oid(ptr noundef %.06884, i32 noundef %50) #11
  %52 = load ptr, ptr %48, align 8
  %53 = tail call i32 @exprTypmod(ptr noundef %52) #11
  %54 = tail call ptr @lappend_int(ptr noundef %.0496785, i32 noundef %53) #11
  %55 = load ptr, ptr %48, align 8
  %56 = tail call i32 @exprCollation(ptr noundef %55) #11
  %57 = tail call ptr @lappend_oid(ptr noundef %.0516686, i32 noundef %56) #11
  %.pre = load i32, ptr %25, align 4
  br label %58

58:                                               ; preds = %.lr.ph89, %47
  %59 = phi i32 [ %.pre, %47 ], [ %30, %.lr.ph89 ]
  %.154 = phi i32 [ %38, %47 ], [ %.0536488, %.lr.ph89 ]
  %.152 = phi ptr [ %57, %47 ], [ %.0516686, %.lr.ph89 ]
  %.150 = phi ptr [ %54, %47 ], [ %.0496785, %.lr.ph89 ]
  %.1 = phi ptr [ %51, %47 ], [ %.06884, %.lr.ph89 ]
  %indvars.iv.next = add nuw nsw i64 %indvars.iv, 1
  %60 = sext i32 %59 to i64
  %61 = icmp slt i64 %indvars.iv.next, %60
  br i1 %61, label %.lr.ph89, label %._crit_edge

62:                                               ; preds = %._crit_edge
  %63 = tail call zeroext i1 @errstart_cold(i32 noundef 21, ptr noundef null) #13
  tail call void @llvm.assume(i1 %63)
  %64 = tail call i32 @errcode(i32 noundef 393348) #11
  %65 = getelementptr inbounds nuw i8, ptr %16, i64 8
  %66 = load ptr, ptr %65, align 8
  %67 = tail call i32 (ptr, ...) @errmsg(ptr noundef nonnull @.str.15, ptr noundef %66, i32 noundef %.053.lcssa, i32 noundef %22) #11
  tail call void @errfinish(ptr noundef nonnull @.str.1, i32 noundef 1709, ptr noundef nonnull @__func__.addRangeTableEntryForSubquery) #11
  unreachable

68:                                               ; preds = %._crit_edge
  %69 = zext i1 %4 to i8
  %70 = zext i1 %3 to i8
  %71 = getelementptr inbounds nuw i8, ptr %6, i64 16
  store ptr %16, ptr %71, align 8
  %72 = getelementptr inbounds nuw i8, ptr %6, i64 208
  store i8 %70, ptr %72, align 8
  %73 = getelementptr inbounds nuw i8, ptr %6, i64 209
  store i8 %69, ptr %73, align 1
  %74 = getelementptr inbounds nuw i8, ptr %0, i64 24
  %75 = load ptr, ptr %74, align 8
  %76 = tail call ptr @lappend(ptr noundef %75, ptr noundef nonnull %6) #11
  store ptr %76, ptr %74, align 8
  %.not.i60 = icmp eq ptr %76, null
  br i1 %.not.i60, label %list_length.exit61, label %77

77:                                               ; preds = %68
  %78 = getelementptr inbounds nuw i8, ptr %76, i64 4
  %79 = load i32, ptr %78, align 4
  br label %list_length.exit61

list_length.exit61:                               ; preds = %68, %77
  %80 = phi i32 [ %79, %77 ], [ 0, %68 ]
  %81 = tail call fastcc ptr @buildNSItemFromLists(ptr noundef nonnull %6, i32 noundef %80, ptr noundef %.0.lcssa, ptr noundef %.049.lcssa, ptr noundef %.051.lcssa)
  %82 = getelementptr inbounds nuw i8, ptr %81, i64 40
  %83 = zext i1 %10 to i8
  store i8 %83, ptr %82, align 8
  ret ptr %81
}